(dp0
I1
c__builtin__
set
p1
((lp2
V861,1066,611,937
p3
aV960,1059,202,306
p4
aV634,690,141,208
p5
aV1129,1280,578,867
p6
aV592,644,143,210
p7
aV669,762,301,423
p8
aV741,858,300,419
p9
aV748,928,620,949
p10
aV604,786,623,959
p11
aV1134,1236,195,293
p12
aV857,921,129,194
p13
aV1080,1176,198,302
p14
aV773,834,132,199
p15
aV809,931,289,415
p16
aV723,789,133,201
p17
aV1024,1121,200,302
p18
aV961,1073,283,400
p19
aV892,994,205,310
p20
aV811,880,131,196
p21
aV596,686,301,428
p22
aV650,733,217,333
p23
aV1173,1263,282,382
p24
aV1014,1237,589,922
p25
aV589,675,222,342
p26
aV1099,1205,278,394
p27
aV673,742,134,204
p28
aV837,924,207,320
p29
aV890,1017,288,405
p30
aV959,1020,126,191
p31
aV779,863,210,326
p32
aV713,796,214,330
p33
aV1028,1157,284,396
p34
aV1002,1053,125,187
p35
aV905,972,128,192
p36
atp37
Rp38
sI3
g1
((lp39
V0,98,248,342
p40
aV70,127,108,160
p41
aV33,89,108,155
p42
aV139,257,194,266
p43
aV25,145,257,348
p44
aV120,193,113,163
p45
aV207,266,118,170
p46
aV329,432,207,283
p47
aV44,168,181,254
p48
aV97,156,111,158
p49
aV162,288,251,365
p50
aV208,311,198,270
p51
aV453,512,136,195
p52
aV361,433,130,185
p53
aV396,501,214,295
p54
aV489,564,139,200
p55
aV15,99,176,246
p56
aV259,363,201,275
p57
aV404,467,133,189
p58
aV164,236,114,166
p59
aV234,349,249,383
p60
aV243,309,122,173
p61
aV86,218,186,258
p62
aV9,62,105,149
p63
aV284,353,125,177
p64
aV294,436,246,393
p65
aV322,385,128,181
p66
aV0,82,169,231
p67
aV90,219,254,355
p68
atp69
Rp70
sI4
g1
((lp71
V615,709,207,231
p72
aV183,352,304,357
p73
aV496,687,374,434
p74
aV685,857,311,372
p75
aV384,479,191,214
p76
aV406,500,173,202
p77
aV239,379,278,324
p78
aV697,831,270,303
p79
aV606,708,223,249
p80
aV471,691,418,517
p81
aV167,290,248,281
p82
aV701,809,211,237
p83
aV0,81,348,443
p84
aV9,153,326,387
p85
aV341,452,222,250
p86
aV57,202,291,345
p87
aV678,868,348,410
p88
aV120,255,265,310
p89
aV517,687,329,387
p90
aV47,264,381,467
p91
aV700,817,248,277
p92
aV692,845,286,328
p93
aV562,698,274,320
p94
aV364,467,205,233
p95
aV703,810,230,257
p96
aV307,391,181,209
p97
aV590,701,240,267
p98
aV328,411,169,195
p99
aV666,895,448,533
p100
aV322,429,237,265
p101
aV212,326,223,260
p102
aV706,803,193,221
p103
aV580,700,258,288
p104
aV619,709,191,218
p105
aV250,354,209,240
p106
aV286,377,197,227
p107
aV544,692,306,344
p108
aV675,881,394,466
p109
aV122,314,339,400
p110
aV275,403,254,294
p111
atp112
Rp113
sI5
g1
((lp114
V1059,1138,294,365
p115
aV940,1029,289,364
p116
aV1197,1280,297,366
p117
aV890,970,288,364
p118
aV813,918,286,364
p119
aV1101,1195,294,366
p120
aV917,982,217,275
p121
aV1080,1137,221,273
p122
aV752,818,217,280
p123
aV954,1062,354,459
p124
aV1148,1245,293,366
p125
aV962,1027,218,274
p126
aV1045,1097,220,273
p127
aV882,941,216,277
p128
aV1142,1261,349,451
p129
aV1210,1267,226,272
p130
aV1186,1232,224,273
p131
aV1087,1192,348,454
p132
aV839,901,216,276
p133
aV1009,1064,218,274
p134
aV1155,1202,224,273
p135
aV795,860,220,277
p136
aV1126,1171,224,272
p137
aV864,977,353,459
p138
aV1017,1131,350,456
p139
aV1002,1091,291,364
p140
atp141
Rp142
sI6
g1
((lp143
V623,764,198,246
p144
aV583,1001,855,960
p145
aV689,920,485,589
p146
aV649,774,158,195
p147
aV670,783,129,169
p148
aV1006,1126,220,256
p149
aV387,685,503,633
p150
aV1143,1280,473,542
p151
aV1018,1149,246,278
p152
aV732,893,322,375
p153
aV634,981,692,881
p154
aV679,785,119,152
p155
aV1116,1280,412,484
p156
aV1048,1203,291,331
p157
aV769,881,186,216
p158
aV604,752,227,276
p159
aV1066,1238,320,379
p160
aV441,698,422,527
p161
aV758,890,224,260
p162
aV783,877,133,156
p163
aV225,596,745,960
p164
aV997,1106,198,230
p165
aV719,898,363,431
p166
aV663,953,572,711
p167
aV661,779,144,179
p168
aV549,736,280,342
p169
aV708,904,420,507
p170
aV748,892,249,292
p171
aV740,891,284,344
p172
aV570,743,256,302
p173
aV1091,1257,365,428
p174
aV642,770,182,213
p175
aV482,711,370,444
p176
aV1167,1280,527,615
p177
aV770,883,167,197
p178
aV760,885,202,238
p179
aV984,1091,183,206
p180
aV1036,1170,263,307
p181
aV524,728,322,387
p182
aV317,659,593,768
p183
aV775,881,149,177
p184
atp185
Rp186
s.